target datalayout = "e-m:e-p270:32:32-p271:32:32-p272:64:64-i64:64-i128:128-f80:128-n8:16:32:64-S128"
target triple = "x86_64-pc-linux-gnu"

@.str.221 = private unnamed_addr constant [4 x i8] c"und\00", align 1
@.str.506 = private unnamed_addr constant [5 x i8] c"data\00", align 1

; Function Attrs: nounwind uwtable
define internal i64 @update_size(ptr noundef %0, i64 noundef %1) #0 {
  %3 = alloca ptr, align 8
  %4 = alloca i64, align 8
  %5 = alloca i64, align 8
  store ptr %0, ptr %3, align 8, !tbaa !31
  store i64 %1, ptr %4, align 8, !tbaa !134
  call void @llvm.lifetime.start.p0(i64 8, ptr %5) #14
  %6 = load ptr, ptr %3, align 8, !tbaa !31
  %7 = call i64 @avio_tell(ptr noundef %6)
  store i64 %7, ptr %5, align 8, !tbaa !134
  %8 = load ptr, ptr %3, align 8, !tbaa !31
  %9 = load i64, ptr %4, align 8, !tbaa !134
  %10 = call i64 @avio_seek(ptr noundef %8, i64 noundef %9, i32 noundef 0)
  %11 = load ptr, ptr %3, align 8, !tbaa !31
  %12 = load i64, ptr %5, align 8, !tbaa !134
  %13 = load i64, ptr %4, align 8, !tbaa !134
  %14 = sub nsw i64 %12, %13
  %15 = trunc i64 %14 to i32
  call void @avio_wb32(ptr noundef %11, i32 noundef %15)
  %16 = load ptr, ptr %3, align 8, !tbaa !31
  %17 = load i64, ptr %5, align 8, !tbaa !134
  %18 = call i64 @avio_seek(ptr noundef %16, i64 noundef %17, i32 noundef 0)
  %19 = load i64, ptr %5, align 8, !tbaa !134
  %20 = load i64, ptr %4, align 8, !tbaa !134
  %21 = sub nsw i64 %19, %20
  call void @llvm.lifetime.end.p0(i64 8, ptr %5) #14
  ret i64 %21
}

; Function Attrs: nounwind uwtable
define internal i32 @mov_write_string_data_tag(ptr noundef %0, ptr noundef %1, i32 noundef %2, i32 noundef %3) #0 {
  %5 = alloca i32, align 4
  %6 = alloca ptr, align 8
  %7 = alloca ptr, align 8
  %8 = alloca i32, align 4
  %9 = alloca i32, align 4
  %10 = alloca i64, align 8
  %11 = alloca i32, align 4
  %12 = alloca i32, align 4
  store ptr %0, ptr %6, align 8, !tbaa !31
  store ptr %1, ptr %7, align 8, !tbaa !38
  store i32 %2, ptr %8, align 4, !tbaa !32
  store i32 %3, ptr %9, align 4, !tbaa !32
  call void @llvm.lifetime.start.p0(i64 8, ptr %10) #14
  %13 = load ptr, ptr %7, align 8, !tbaa !38
  %14 = call i64 @strlen(ptr noundef %13) #17
  store i64 %14, ptr %10, align 8, !tbaa !134
  %15 = load i32, ptr %9, align 4, !tbaa !32
  %16 = icmp ne i32 %15, 0
  br i1 %16, label %17, label %31

17:                                               ; preds = %4
  call void @llvm.lifetime.start.p0(i64 4, ptr %11) #14
  %18 = load i64, ptr %10, align 8, !tbaa !134
  %19 = add i64 16, %18
  %20 = trunc i64 %19 to i32
  store i32 %20, ptr %11, align 4, !tbaa !32
  %21 = load ptr, ptr %6, align 8, !tbaa !31
  %22 = load i32, ptr %11, align 4, !tbaa !32
  call void @avio_wb32(ptr noundef %21, i32 noundef %22)
  %23 = load ptr, ptr %6, align 8, !tbaa !31
  call void @ffio_wfourcc(ptr noundef %23, ptr noundef @.str.506)
  %24 = load ptr, ptr %6, align 8, !tbaa !31
  call void @avio_wb32(ptr noundef %24, i32 noundef 1)
  %25 = load ptr, ptr %6, align 8, !tbaa !31
  call void @avio_wb32(ptr noundef %25, i32 noundef 0)
  %26 = load ptr, ptr %6, align 8, !tbaa !31
  %27 = load ptr, ptr %7, align 8, !tbaa !38
  %28 = load i64, ptr %10, align 8, !tbaa !134
  %29 = trunc i64 %28 to i32
  call void @avio_write(ptr noundef %26, ptr noundef %27, i32 noundef %29)
  %30 = load i32, ptr %11, align 4, !tbaa !32
  store i32 %30, ptr %5, align 4
  store i32 1, ptr %12, align 4
  call void @llvm.lifetime.end.p0(i64 4, ptr %11) #14
  br label %49

31:                                               ; preds = %4
  %32 = load ptr, ptr %6, align 8, !tbaa !31
  %33 = load i64, ptr %10, align 8, !tbaa !134
  %34 = trunc i64 %33 to i32
  call void @avio_wb16(ptr noundef %32, i32 noundef %34)
  %35 = load i32, ptr %8, align 4, !tbaa !32
  %36 = icmp ne i32 %35, 0
  br i1 %36, label %39, label %37

37:                                               ; preds = %31
  %38 = call i32 @ff_mov_iso639_to_lang(ptr noundef @.str.221, i32 noundef 1)
  store i32 %38, ptr %8, align 4, !tbaa !32
  br label %39

39:                                               ; preds = %37, %31
  %40 = load ptr, ptr %6, align 8, !tbaa !31
  %41 = load i32, ptr %8, align 4, !tbaa !32
  call void @avio_wb16(ptr noundef %40, i32 noundef %41)
  %42 = load ptr, ptr %6, align 8, !tbaa !31
  %43 = load ptr, ptr %7, align 8, !tbaa !38
  %44 = load i64, ptr %10, align 8, !tbaa !134
  %45 = trunc i64 %44 to i32
  call void @avio_write(ptr noundef %42, ptr noundef %43, i32 noundef %45)
  %46 = load i64, ptr %10, align 8, !tbaa !134
  %47 = add i64 %46, 4
  %48 = trunc i64 %47 to i32
  store i32 %48, ptr %5, align 4
  store i32 1, ptr %12, align 4
  br label %49

49:                                               ; preds = %39, %17
  call void @llvm.lifetime.end.p0(i64 8, ptr %10) #14
  %50 = load i32, ptr %5, align 4
  ret i32 %50
}

; Function Attrs: alwaysinline nounwind uwtable
define internal void @ffio_wfourcc(ptr noundef %0, ptr noundef %1) #6 {
  %3 = alloca ptr, align 8
  %4 = alloca ptr, align 8
  store ptr %0, ptr %3, align 8, !tbaa !31
  store ptr %1, ptr %4, align 8, !tbaa !38
  %5 = load ptr, ptr %3, align 8, !tbaa !31
  %6 = load ptr, ptr %4, align 8, !tbaa !38
  %7 = getelementptr inbounds i8, ptr %6, i64 0
  %8 = load i8, ptr %7, align 1, !tbaa !85
  %9 = zext i8 %8 to i32
  %10 = load ptr, ptr %4, align 8, !tbaa !38
  %11 = getelementptr inbounds i8, ptr %10, i64 1
  %12 = load i8, ptr %11, align 1, !tbaa !85
  %13 = zext i8 %12 to i32
  %14 = shl i32 %13, 8
  %15 = or i32 %9, %14
  %16 = load ptr, ptr %4, align 8, !tbaa !38
  %17 = getelementptr inbounds i8, ptr %16, i64 2
  %18 = load i8, ptr %17, align 1, !tbaa !85
  %19 = zext i8 %18 to i32
  %20 = shl i32 %19, 16
  %21 = or i32 %15, %20
  %22 = load ptr, ptr %4, align 8, !tbaa !38
  %23 = getelementptr inbounds i8, ptr %22, i64 3
  %24 = load i8, ptr %23, align 1, !tbaa !85
  %25 = zext i8 %24 to i32
  %26 = shl i32 %25, 24
  %27 = or i32 %21, %26
  call void @avio_wl32(ptr noundef %5, i32 noundef %27)
  ret void
}

; Function Attrs: alwaysinline nounwind uwtable
define internal i64 @avio_tell(ptr noundef %0) #6 {
  %2 = alloca ptr, align 8
  store ptr %0, ptr %2, align 8, !tbaa !31
  %3 = load ptr, ptr %2, align 8, !tbaa !31
  %4 = call i64 @avio_seek(ptr noundef %3, i64 noundef 0, i32 noundef 1)
  ret i64 %4
}

; Function Attrs: nounwind uwtable
define internal i32 @mov_write_string_tag(ptr noundef %0, ptr noundef %1, ptr noundef %2, i32 noundef %3, i32 noundef %4) #0 {
  %6 = alloca ptr, align 8
  %7 = alloca ptr, align 8
  %8 = alloca ptr, align 8
  %9 = alloca i32, align 4
  %10 = alloca i32, align 4
  %11 = alloca i32, align 4
  %12 = alloca i64, align 8
  store ptr %0, ptr %6, align 8, !tbaa !31
  store ptr %1, ptr %7, align 8, !tbaa !38
  store ptr %2, ptr %8, align 8, !tbaa !38
  store i32 %3, ptr %9, align 4, !tbaa !32
  store i32 %4, ptr %10, align 4, !tbaa !32
  call void @llvm.lifetime.start.p0(i64 4, ptr %11) #14
  store i32 0, ptr %11, align 4, !tbaa !32
  %13 = load ptr, ptr %8, align 8, !tbaa !38
  %14 = icmp ne ptr %13, null
  br i1 %14, label %15, label %36

15:                                               ; preds = %5
  %16 = load ptr, ptr %8, align 8, !tbaa !38
  %17 = getelementptr inbounds i8, ptr %16, i64 0
  %18 = load i8, ptr %17, align 1, !tbaa !85
  %19 = sext i8 %18 to i32
  %20 = icmp ne i32 %19, 0
  br i1 %20, label %21, label %36

21:                                               ; preds = %15
  call void @llvm.lifetime.start.p0(i64 8, ptr %12) #14
  %22 = load ptr, ptr %6, align 8, !tbaa !31
  %23 = call i64 @avio_tell(ptr noundef %22)
  store i64 %23, ptr %12, align 8, !tbaa !134
  %24 = load ptr, ptr %6, align 8, !tbaa !31
  call void @avio_wb32(ptr noundef %24, i32 noundef 0)
  %25 = load ptr, ptr %6, align 8, !tbaa !31
  %26 = load ptr, ptr %7, align 8, !tbaa !38
  call void @ffio_wfourcc(ptr noundef %25, ptr noundef %26)
  %27 = load ptr, ptr %6, align 8, !tbaa !31
  %28 = load ptr, ptr %8, align 8, !tbaa !38
  %29 = load i32, ptr %9, align 4, !tbaa !32
  %30 = load i32, ptr %10, align 4, !tbaa !32
  %31 = call i32 @mov_write_string_data_tag(ptr noundef %27, ptr noundef %28, i32 noundef %29, i32 noundef %30)
  %32 = load ptr, ptr %6, align 8, !tbaa !31
  %33 = load i64, ptr %12, align 8, !tbaa !134
  %34 = call i64 @update_size(ptr noundef %32, i64 noundef %33)
  %35 = trunc i64 %34 to i32
  store i32 %35, ptr %11, align 4, !tbaa !32
  call void @llvm.lifetime.end.p0(i64 8, ptr %12) #14
  br label %36

36:                                               ; preds = %21, %15, %5
  %37 = load i32, ptr %11, align 4, !tbaa !32
  call void @llvm.lifetime.end.p0(i64 4, ptr %11) #14
  ret i32 %37
}