; Function Attrs: nounwind uwtable
define internal fastcc noundef i32 @mov_write_string_tag(ptr noundef %0, ptr noundef readonly captures(none) %1, ptr noundef %2, i32 noundef %3, i32 noundef range(i32 0, 2) %4) unnamed_addr #0 {
  %.not = icmp eq ptr %2, null
  br i1 %.not, label %24, label %6

6:                                                ; preds = %5
  %7 = load i8, ptr %2, align 1, !tbaa !88
  %.not13 = icmp eq i8 %7, 0
  br i1 %.not13, label %24, label %8

8:                                                ; preds = %6
  %9 = tail call i64 @avio_seek(ptr noundef %0, i64 noundef 0, i32 noundef 1) #16
  tail call void @avio_wb32(ptr noundef %0, i32 noundef 0) #16
  %10 = load i32, ptr %1, align 1
  tail call void @avio_wl32(ptr noundef %0, i32 noundef %10) #16
  %11 = tail call i64 @strlen(ptr noundef nonnull dereferenceable(1) %2) #18
  %.not.i = icmp eq i32 %4, 0
  %12 = trunc i64 %11 to i32
  br i1 %.not.i, label %15, label %13

13:                                               ; preds = %8
  %14 = add i32 %12, 16
  tail call void @avio_wb32(ptr noundef %0, i32 noundef %14) #16
  tail call void @avio_wl32(ptr noundef %0, i32 noundef 1635017060) #16
  tail call void @avio_wb32(ptr noundef %0, i32 noundef 1) #16
  tail call void @avio_wb32(ptr noundef %0, i32 noundef 0) #16
  br label %mov_write_string_data_tag.exit

15:                                               ; preds = %8
  tail call void @avio_wb16(ptr noundef %0, i32 noundef %12) #16
  %.not23.i = icmp eq i32 %3, 0
  br i1 %.not23.i, label %16, label %18

16:                                               ; preds = %15
  %17 = tail call i32 @ff_mov_iso639_to_lang(ptr noundef nonnull @.str.221, i32 noundef 1) #16
  br label %18

18:                                               ; preds = %16, %15
  %.021.i = phi i32 [ %3, %15 ], [ %17, %16 ]
  tail call void @avio_wb16(ptr noundef %0, i32 noundef %.021.i) #16
  br label %mov_write_string_data_tag.exit

mov_write_string_data_tag.exit:                   ; preds = %13, %18
  tail call void @avio_write(ptr noundef %0, ptr noundef nonnull %2, i32 noundef %12) #16
  %19 = tail call i64 @avio_seek(ptr noundef %0, i64 noundef 0, i32 noundef 1) #16
  %20 = tail call i64 @avio_seek(ptr noundef %0, i64 noundef %9, i32 noundef 0) #16
  %21 = sub nsw i64 %19, %9
  %22 = trunc i64 %21 to i32
  tail call void @avio_wb32(ptr noundef %0, i32 noundef %22) #16
  %23 = tail call i64 @avio_seek(ptr noundef %0, i64 noundef %19, i32 noundef 0) #16
  br label %24

24:                                               ; preds = %mov_write_string_data_tag.exit, %6, %5
  %.0 = phi i32 [ %22, %mov_write_string_data_tag.exit ], [ 0, %6 ], [ 0, %5 ]
  ret i32 %.0
}